
pg-a.out:     file format elf64-x86-64


Disassembly of section .init:

0000000000400448 <_init>:
  400448:	48 83 ec 08          	sub    $0x8,%rsp
  40044c:	48 8d 05 ad 00 00 00 	lea    0xad(%rip),%rax        # 400500 <__gmon_start__>
  400453:	48 85 c0             	test   %rax,%rax
  400456:	74 05                	je     40045d <_init+0x15>
  400458:	e8 a3 00 00 00       	callq  400500 <__gmon_start__>
  40045d:	48 83 c4 08          	add    $0x8,%rsp
  400461:	c3                   	retq   

Disassembly of section .plt:

0000000000400470 <_mcleanup@plt-0x10>:
  400470:	ff 35 92 0b 20 00    	pushq  0x200b92(%rip)        # 601008 <_GLOBAL_OFFSET_TABLE_+0x8>
  400476:	ff 25 94 0b 20 00    	jmpq   *0x200b94(%rip)        # 601010 <_GLOBAL_OFFSET_TABLE_+0x10>
  40047c:	0f 1f 40 00          	nopl   0x0(%rax)

0000000000400480 <_mcleanup@plt>:
  400480:	ff 25 92 0b 20 00    	jmpq   *0x200b92(%rip)        # 601018 <_GLOBAL_OFFSET_TABLE_+0x18>
  400486:	68 00 00 00 00       	pushq  $0x0
  40048b:	e9 e0 ff ff ff       	jmpq   400470 <_init+0x28>

0000000000400490 <__libc_start_main@plt>:
  400490:	ff 25 8a 0b 20 00    	jmpq   *0x200b8a(%rip)        # 601020 <_GLOBAL_OFFSET_TABLE_+0x20>
  400496:	68 01 00 00 00       	pushq  $0x1
  40049b:	e9 d0 ff ff ff       	jmpq   400470 <_init+0x28>

00000000004004a0 <__monstartup@plt>:
  4004a0:	ff 25 82 0b 20 00    	jmpq   *0x200b82(%rip)        # 601028 <_GLOBAL_OFFSET_TABLE_+0x28>
  4004a6:	68 02 00 00 00       	pushq  $0x2
  4004ab:	e9 c0 ff ff ff       	jmpq   400470 <_init+0x28>

00000000004004b0 <mcount@plt>:
  4004b0:	ff 25 7a 0b 20 00    	jmpq   *0x200b7a(%rip)        # 601030 <_GLOBAL_OFFSET_TABLE_+0x30>
  4004b6:	68 03 00 00 00       	pushq  $0x3
  4004bb:	e9 b0 ff ff ff       	jmpq   400470 <_init+0x28>

00000000004004c0 <__cxa_atexit@plt>:
  4004c0:	ff 25 72 0b 20 00    	jmpq   *0x200b72(%rip)        # 601038 <_GLOBAL_OFFSET_TABLE_+0x38>
  4004c6:	68 04 00 00 00       	pushq  $0x4
  4004cb:	e9 a0 ff ff ff       	jmpq   400470 <_init+0x28>

Disassembly of section .text:

00000000004004d0 <_start>:
  4004d0:	31 ed                	xor    %ebp,%ebp
  4004d2:	49 89 d1             	mov    %rdx,%r9
  4004d5:	5e                   	pop    %rsi
  4004d6:	48 89 e2             	mov    %rsp,%rdx
  4004d9:	48 83 e4 f0          	and    $0xfffffffffffffff0,%rsp
  4004dd:	50                   	push   %rax
  4004de:	54                   	push   %rsp
  4004df:	49 c7 c0 30 07 40 00 	mov    $0x400730,%r8
  4004e6:	48 c7 c1 c0 06 40 00 	mov    $0x4006c0,%rcx
  4004ed:	48 c7 c7 77 06 40 00 	mov    $0x400677,%rdi
  4004f4:	e8 97 ff ff ff       	callq  400490 <__libc_start_main@plt>
  4004f9:	f4                   	hlt    
  4004fa:	66 0f 1f 44 00 00    	nopw   0x0(%rax,%rax,1)

0000000000400500 <__gmon_start__>:
  400500:	8b 05 4a 0b 20 00    	mov    0x200b4a(%rip),%eax        # 601050 <__TMC_END__>
  400506:	85 c0                	test   %eax,%eax
  400508:	74 06                	je     400510 <__gmon_start__+0x10>
  40050a:	f3 c3                	repz retq 
  40050c:	0f 1f 40 00          	nopl   0x0(%rax)
  400510:	48 83 ec 08          	sub    $0x8,%rsp
  400514:	bf d0 04 40 00       	mov    $0x4004d0,%edi
  400519:	be 65 07 40 00       	mov    $0x400765,%esi
  40051e:	c7 05 28 0b 20 00 01 	movl   $0x1,0x200b28(%rip)        # 601050 <__TMC_END__>
  400525:	00 00 00 
  400528:	e8 73 ff ff ff       	callq  4004a0 <__monstartup@plt>
  40052d:	bf 80 04 40 00       	mov    $0x400480,%edi
  400532:	48 83 c4 08          	add    $0x8,%rsp
  400536:	e9 05 02 00 00       	jmpq   400740 <atexit>
  40053b:	0f 1f 44 00 00       	nopl   0x0(%rax,%rax,1)

0000000000400540 <deregister_tm_clones>:
  400540:	b8 57 10 60 00       	mov    $0x601057,%eax
  400545:	55                   	push   %rbp
  400546:	48 2d 50 10 60 00    	sub    $0x601050,%rax
  40054c:	48 83 f8 0e          	cmp    $0xe,%rax
  400550:	48 89 e5             	mov    %rsp,%rbp
  400553:	77 02                	ja     400557 <deregister_tm_clones+0x17>
  400555:	5d                   	pop    %rbp
  400556:	c3                   	retq   
  400557:	b8 00 00 00 00       	mov    $0x0,%eax
  40055c:	48 85 c0             	test   %rax,%rax
  40055f:	74 f4                	je     400555 <deregister_tm_clones+0x15>
  400561:	5d                   	pop    %rbp
  400562:	bf 50 10 60 00       	mov    $0x601050,%edi
  400567:	ff e0                	jmpq   *%rax
  400569:	0f 1f 80 00 00 00 00 	nopl   0x0(%rax)

0000000000400570 <register_tm_clones>:
  400570:	b8 50 10 60 00       	mov    $0x601050,%eax
  400575:	55                   	push   %rbp
  400576:	48 2d 50 10 60 00    	sub    $0x601050,%rax
  40057c:	48 c1 f8 03          	sar    $0x3,%rax
  400580:	48 89 e5             	mov    %rsp,%rbp
  400583:	48 89 c2             	mov    %rax,%rdx
  400586:	48 c1 ea 3f          	shr    $0x3f,%rdx
  40058a:	48 01 d0             	add    %rdx,%rax
  40058d:	48 d1 f8             	sar    %rax
  400590:	75 02                	jne    400594 <register_tm_clones+0x24>
  400592:	5d                   	pop    %rbp
  400593:	c3                   	retq   
  400594:	ba 00 00 00 00       	mov    $0x0,%edx
  400599:	48 85 d2             	test   %rdx,%rdx
  40059c:	74 f4                	je     400592 <register_tm_clones+0x22>
  40059e:	5d                   	pop    %rbp
  40059f:	48 89 c6             	mov    %rax,%rsi
  4005a2:	bf 50 10 60 00       	mov    $0x601050,%edi
  4005a7:	ff e2                	jmpq   *%rdx
  4005a9:	0f 1f 80 00 00 00 00 	nopl   0x0(%rax)

00000000004005b0 <__do_global_dtors_aux>:
  4005b0:	80 3d 9d 0a 20 00 00 	cmpb   $0x0,0x200a9d(%rip)        # 601054 <completed.6973>
  4005b7:	75 11                	jne    4005ca <__do_global_dtors_aux+0x1a>
  4005b9:	55                   	push   %rbp
  4005ba:	48 89 e5             	mov    %rsp,%rbp
  4005bd:	e8 7e ff ff ff       	callq  400540 <deregister_tm_clones>
  4005c2:	5d                   	pop    %rbp
  4005c3:	c6 05 8a 0a 20 00 01 	movb   $0x1,0x200a8a(%rip)        # 601054 <completed.6973>
  4005ca:	f3 c3                	repz retq 
  4005cc:	0f 1f 40 00          	nopl   0x0(%rax)

00000000004005d0 <frame_dummy>:
  4005d0:	48 83 3d 80 08 20 00 	cmpq   $0x0,0x200880(%rip)        # 600e58 <__JCR_END__>
  4005d7:	00 
  4005d8:	74 1e                	je     4005f8 <frame_dummy+0x28>
  4005da:	b8 00 00 00 00       	mov    $0x0,%eax
  4005df:	48 85 c0             	test   %rax,%rax
  4005e2:	74 14                	je     4005f8 <frame_dummy+0x28>
  4005e4:	55                   	push   %rbp
  4005e5:	bf 58 0e 60 00       	mov    $0x600e58,%edi
  4005ea:	48 89 e5             	mov    %rsp,%rbp
  4005ed:	ff d0                	callq  *%rax
  4005ef:	5d                   	pop    %rbp
  4005f0:	e9 7b ff ff ff       	jmpq   400570 <register_tm_clones>
  4005f5:	0f 1f 00             	nopl   (%rax)
  4005f8:	e9 73 ff ff ff       	jmpq   400570 <register_tm_clones>

00000000004005fd <test3>:
  4005fd:	55                   	push   %rbp
  4005fe:	48 89 e5             	mov    %rsp,%rbp
  400601:	48 83 ec 10          	sub    $0x10,%rsp
  400605:	e8 a6 fe ff ff       	callq  4004b0 <mcount@plt>
  40060a:	c7 45 fc 00 00 00 00 	movl   $0x0,-0x4(%rbp)
  400611:	eb 08                	jmp    40061b <test3+0x1e>
  400613:	83 45 fc 01          	addl   $0x1,-0x4(%rbp)
  400617:	83 45 fc 01          	addl   $0x1,-0x4(%rbp)
  40061b:	83 7d fc 63          	cmpl   $0x63,-0x4(%rbp)
  40061f:	7e f2                	jle    400613 <test3+0x16>
  400621:	c9                   	leaveq 
  400622:	c3                   	retq   

0000000000400623 <test2>:
  400623:	55                   	push   %rbp
  400624:	48 89 e5             	mov    %rsp,%rbp
  400627:	48 83 ec 10          	sub    $0x10,%rsp
  40062b:	e8 80 fe ff ff       	callq  4004b0 <mcount@plt>
  400630:	c7 45 fc 00 00 00 00 	movl   $0x0,-0x4(%rbp)
  400637:	eb 08                	jmp    400641 <test2+0x1e>
  400639:	83 45 fc 01          	addl   $0x1,-0x4(%rbp)
  40063d:	83 45 fc 01          	addl   $0x1,-0x4(%rbp)
  400641:	81 7d fc e7 03 00 00 	cmpl   $0x3e7,-0x4(%rbp)
  400648:	7e ef                	jle    400639 <test2+0x16>
  40064a:	c9                   	leaveq 
  40064b:	c3                   	retq   

000000000040064c <test1>:
  40064c:	55                   	push   %rbp
  40064d:	48 89 e5             	mov    %rsp,%rbp
  400650:	48 83 ec 10          	sub    $0x10,%rsp
  400654:	e8 57 fe ff ff       	callq  4004b0 <mcount@plt>
  400659:	c7 45 fc 00 00 00 00 	movl   $0x0,-0x4(%rbp)
  400660:	eb 0d                	jmp    40066f <test1+0x23>
  400662:	83 45 fc 01          	addl   $0x1,-0x4(%rbp)
  400666:	e8 b8 ff ff ff       	callq  400623 <test2>
  40066b:	83 45 fc 01          	addl   $0x1,-0x4(%rbp)
  40066f:	83 7d fc 09          	cmpl   $0x9,-0x4(%rbp)
  400673:	7e ed                	jle    400662 <test1+0x16>
  400675:	c9                   	leaveq 
  400676:	c3                   	retq   

0000000000400677 <main>:
  400677:	55                   	push   %rbp
  400678:	48 89 e5             	mov    %rsp,%rbp
  40067b:	48 83 ec 20          	sub    $0x20,%rsp
  40067f:	e8 2c fe ff ff       	callq  4004b0 <mcount@plt>
  400684:	89 7d ec             	mov    %edi,-0x14(%rbp)
  400687:	48 89 75 e0          	mov    %rsi,-0x20(%rbp)
  40068b:	c7 45 fc 00 00 00 00 	movl   $0x0,-0x4(%rbp)
  400692:	eb 0e                	jmp    4006a2 <main+0x2b>
  400694:	e8 b3 ff ff ff       	callq  40064c <test1>
  400699:	e8 5f ff ff ff       	callq  4005fd <test3>
  40069e:	83 45 fc 01          	addl   $0x1,-0x4(%rbp)
  4006a2:	81 7d fc 9f 86 01 00 	cmpl   $0x1869f,-0x4(%rbp)
  4006a9:	7e e9                	jle    400694 <main+0x1d>
  4006ab:	b8 00 00 00 00       	mov    $0x0,%eax
  4006b0:	c9                   	leaveq 
  4006b1:	c3                   	retq   
  4006b2:	66 2e 0f 1f 84 00 00 	nopw   %cs:0x0(%rax,%rax,1)
  4006b9:	00 00 00 
  4006bc:	0f 1f 40 00          	nopl   0x0(%rax)

00000000004006c0 <__libc_csu_init>:
  4006c0:	41 57                	push   %r15
  4006c2:	41 89 ff             	mov    %edi,%r15d
  4006c5:	41 56                	push   %r14
  4006c7:	49 89 f6             	mov    %rsi,%r14
  4006ca:	41 55                	push   %r13
  4006cc:	49 89 d5             	mov    %rdx,%r13
  4006cf:	41 54                	push   %r12
  4006d1:	4c 8d 25 70 07 20 00 	lea    0x200770(%rip),%r12        # 600e48 <__frame_dummy_init_array_entry>
  4006d8:	55                   	push   %rbp
  4006d9:	48 8d 2d 70 07 20 00 	lea    0x200770(%rip),%rbp        # 600e50 <__init_array_end>
  4006e0:	53                   	push   %rbx
  4006e1:	4c 29 e5             	sub    %r12,%rbp
  4006e4:	31 db                	xor    %ebx,%ebx
  4006e6:	48 c1 fd 03          	sar    $0x3,%rbp
  4006ea:	48 83 ec 08          	sub    $0x8,%rsp
  4006ee:	e8 55 fd ff ff       	callq  400448 <_init>
  4006f3:	48 85 ed             	test   %rbp,%rbp
  4006f6:	74 1e                	je     400716 <__libc_csu_init+0x56>
  4006f8:	0f 1f 84 00 00 00 00 	nopl   0x0(%rax,%rax,1)
  4006ff:	00 
  400700:	4c 89 ea             	mov    %r13,%rdx
  400703:	4c 89 f6             	mov    %r14,%rsi
  400706:	44 89 ff             	mov    %r15d,%edi
  400709:	41 ff 14 dc          	callq  *(%r12,%rbx,8)
  40070d:	48 83 c3 01          	add    $0x1,%rbx
  400711:	48 39 eb             	cmp    %rbp,%rbx
  400714:	75 ea                	jne    400700 <__libc_csu_init+0x40>
  400716:	48 83 c4 08          	add    $0x8,%rsp
  40071a:	5b                   	pop    %rbx
  40071b:	5d                   	pop    %rbp
  40071c:	41 5c                	pop    %r12
  40071e:	41 5d                	pop    %r13
  400720:	41 5e                	pop    %r14
  400722:	41 5f                	pop    %r15
  400724:	c3                   	retq   
  400725:	66 66 2e 0f 1f 84 00 	data32 nopw %cs:0x0(%rax,%rax,1)
  40072c:	00 00 00 00 

0000000000400730 <__libc_csu_fini>:
  400730:	f3 c3                	repz retq 
  400732:	66 2e 0f 1f 84 00 00 	nopw   %cs:0x0(%rax,%rax,1)
  400739:	00 00 00 
  40073c:	0f 1f 40 00          	nopl   0x0(%rax)

0000000000400740 <atexit>:
  400740:	48 8d 05 01 09 20 00 	lea    0x200901(%rip),%rax        # 601048 <__dso_handle>
  400747:	48 85 c0             	test   %rax,%rax
  40074a:	74 0a                	je     400756 <atexit+0x16>
  40074c:	48 8b 10             	mov    (%rax),%rdx
  40074f:	31 f6                	xor    %esi,%esi
  400751:	e9 6a fd ff ff       	jmpq   4004c0 <__cxa_atexit@plt>
  400756:	31 d2                	xor    %edx,%edx
  400758:	eb f5                	jmp    40074f <atexit+0xf>

Disassembly of section .fini:

000000000040075c <_fini>:
  40075c:	48 83 ec 08          	sub    $0x8,%rsp
  400760:	48 83 c4 08          	add    $0x8,%rsp
  400764:	c3                   	retq   
